; Function Attrs: mustprogress nounwind uwtable
define dso_local void @_ZNK4llvm3opt7ArgList12addOptInFlagERNS_11SmallVectorIPKcLj16EEENS0_12OptSpecifierES7_(ptr noundef nonnull align 8 dereferenceable(176) %0, ptr noundef nonnull align 8 dereferenceable(144) %1, i32 %2, i32 %3) local_unnamed_addr #0 align 2 {
  %5 = alloca %"class.llvm::iterator_range.46", align 8
  %6 = alloca %"class.llvm::opt::arg_iterator.47", align 8
  call void @llvm.lifetime.start.p0(i64 48, ptr nonnull %5)
  call void @llvm.lifetime.start.p0(i64 24, ptr nonnull %6)
  call void @_ZNK4llvm3opt7ArgList8filteredIJNS0_12OptSpecifierES3_EEENS_14iterator_rangeINS0_12arg_iteratorIPKPNS0_3ArgEXsZT_EEEEEDpT_(ptr dead_on_unwind nonnull writable sret(%"class.llvm::iterator_range.46") align 8 %5, ptr noundef nonnull align 8 dereferenceable(176) %0, i32 %2, i32 %3)
  call void @llvm.memcpy.p0.p0.i64(ptr noundef nonnull align 8 dereferenceable(24) %6, ptr noundef nonnull align 8 dereferenceable(48) %5, i64 24, i1 false)
  %7 = getelementptr inbounds nuw i8, ptr %5, i64 24
  %.sroa.015.0.copyload.i = load ptr, ptr %7, align 8
  %.promoted18.i = load ptr, ptr %6, align 8
  %.not23.i = icmp eq ptr %.promoted18.i, %.sroa.015.0.copyload.i
  br i1 %.not23.i, label %_ZNK4llvm3opt7ArgList10getLastArgIJNS0_12OptSpecifierES3_EEEPNS0_3ArgEDpT_.exit.thread, label %.lr.ph.i

_ZNK4llvm3opt7ArgList10getLastArgIJNS0_12OptSpecifierES3_EEEPNS0_3ArgEDpT_.exit.thread: ; preds = %4
  call void @llvm.lifetime.end.p0(i64 48, ptr nonnull %5)
  call void @llvm.lifetime.end.p0(i64 24, ptr nonnull %6)
  br label %27

.lr.ph.i:                                         ; preds = %4
  %.sroa.2.0..sroa_idx.i = getelementptr inbounds nuw i8, ptr %6, i64 8
  %8 = load ptr, ptr %.sroa.2.0..sroa_idx.i, align 8
  br label %9

9:                                                ; preds = %_ZN4llvm3opt12arg_iteratorIPKPNS0_3ArgELj2EEppEv.exit.i, %.lr.ph.i
  %.promoted1924.i = phi ptr [ %.promoted18.i, %.lr.ph.i ], [ %.promoted20.i, %_ZN4llvm3opt12arg_iteratorIPKPNS0_3ArgELj2EEppEv.exit.i ]
  %10 = load ptr, ptr %.promoted1924.i, align 8
  %11 = getelementptr inbounds nuw i8, ptr %10, i64 16
  %12 = load ptr, ptr %11, align 8
  %.not.i.i.i = icmp eq ptr %12, null
  %spec.select.i.i.i = select i1 %.not.i.i.i, ptr %10, ptr %12
  %13 = getelementptr inbounds nuw i8, ptr %spec.select.i.i.i, i64 44
  %14 = load i8, ptr %13, align 4
  %15 = or i8 %14, 1
  store i8 %15, ptr %13, align 4
  %16 = getelementptr inbounds nuw i8, ptr %.promoted1924.i, i64 8
  store ptr %16, ptr %6, align 8
  %.not18.i.i.i = icmp eq ptr %16, %8
  br i1 %.not18.i.i.i, label %_ZN4llvm3opt12arg_iteratorIPKPNS0_3ArgELj2EEppEv.exit.i, label %.lr.ph.i.i.i

.lr.ph.i.i.i:                                     ; preds = %9, %.loopexit.i.i.i
  %17 = phi ptr [ %23, %.loopexit.i.i.i ], [ %16, %9 ]
  %18 = load ptr, ptr %17, align 8
  %.not10.i.i.i = icmp eq ptr %18, null
  br i1 %.not10.i.i.i, label %.loopexit.i.i.i, label %.preheader.i.i.i

19:                                               ; preds = %21
  %.0.add.i.i.i = add nuw nsw i64 %.0.idx17.i.i.i, 4
  %.not11.i.i.i = icmp eq i64 %.0.add.i.i.i, 24
  br i1 %.not11.i.i.i, label %.loopexit.i.i.i, label %.preheader.i.i.i

.preheader.i.i.i:                                 ; preds = %.lr.ph.i.i.i, %19
  %.0.idx17.i.i.i = phi i64 [ %.0.add.i.i.i, %19 ], [ 16, %.lr.ph.i.i.i ]
  %.0.ptr.i.i.i = getelementptr inbounds nuw i8, ptr %6, i64 %.0.idx17.i.i.i
  %20 = load i32, ptr %.0.ptr.i.i.i, align 4
  %.not14.i.i.i = icmp eq i32 %20, 0
  br i1 %.not14.i.i.i, label %.loopexit.i.i.i, label %21

21:                                               ; preds = %.preheader.i.i.i
  %22 = call noundef zeroext i1 @_ZNK4llvm3opt6Option7matchesENS0_12OptSpecifierE(ptr noundef nonnull align 8 dereferenceable(16) %18, i32 %20) #16
  br i1 %22, label %_ZN4llvm3opt12arg_iteratorIPKPNS0_3ArgELj2EEppEv.exit.i, label %19

.loopexit.i.i.i:                                  ; preds = %.preheader.i.i.i, %19, %.lr.ph.i.i.i
  %23 = getelementptr inbounds nuw i8, ptr %17, i64 8
  store ptr %23, ptr %6, align 8
  %.not.i.i9.i = icmp eq ptr %23, %8
  br i1 %.not.i.i9.i, label %_ZN4llvm3opt12arg_iteratorIPKPNS0_3ArgELj2EEppEv.exit.i, label %.lr.ph.i.i.i, !llvm.loop !17

_ZN4llvm3opt12arg_iteratorIPKPNS0_3ArgELj2EEppEv.exit.i: ; preds = %.loopexit.i.i.i, %21, %9
  %.promoted20.i = phi ptr [ %16, %9 ], [ %17, %21 ], [ %23, %.loopexit.i.i.i ]
  %.not.i = icmp eq ptr %.promoted20.i, %.sroa.015.0.copyload.i
  br i1 %.not.i, label %_ZNK4llvm3opt7ArgList10getLastArgIJNS0_12OptSpecifierES3_EEEPNS0_3ArgEDpT_.exit, label %9

_ZNK4llvm3opt7ArgList10getLastArgIJNS0_12OptSpecifierES3_EEEPNS0_3ArgEDpT_.exit: ; preds = %_ZN4llvm3opt12arg_iteratorIPKPNS0_3ArgELj2EEppEv.exit.i
  call void @llvm.lifetime.end.p0(i64 48, ptr nonnull %5)
  call void @llvm.lifetime.end.p0(i64 24, ptr nonnull %6)
  %.not = icmp eq ptr %10, null
  br i1 %.not, label %27, label %24

24:                                               ; preds = %_ZNK4llvm3opt7ArgList10getLastArgIJNS0_12OptSpecifierES3_EEEPNS0_3ArgEDpT_.exit
  %25 = call noundef zeroext i1 @_ZNK4llvm3opt6Option7matchesENS0_12OptSpecifierE(ptr noundef nonnull align 8 dereferenceable(16) %10, i32 %2) #16
  br i1 %25, label %26, label %27

26:                                               ; preds = %24
  call void @_ZNK4llvm3opt3Arg6renderERKNS0_7ArgListERNS_11SmallVectorIPKcLj16EEE(ptr noundef nonnull align 8 dereferenceable(88) %10, ptr noundef nonnull align 8 dereferenceable(176) %0, ptr noundef nonnull align 8 dereferenceable(144) %1) #16
  br label %27

27:                                               ; preds = %_ZNK4llvm3opt7ArgList10getLastArgIJNS0_12OptSpecifierES3_EEEPNS0_3ArgEDpT_.exit.thread, %24, %26, %_ZNK4llvm3opt7ArgList10getLastArgIJNS0_12OptSpecifierES3_EEEPNS0_3ArgEDpT_.exit
  ret void
}